# SymbolsHelper-Confirmed: 6.6.0 amd64
libQt6WaylandEglClientHwIntegration.so.6 libqt6waylandeglclienthwintegration6 #MINVER#
* Build-Depends-Package: qt6-wayland-dev
 Qt_6@Qt_6 6.6.0
 Qt_6_PRIVATE_API@Qt_6_PRIVATE_API 6.6.0
 _ZN15QtWaylandClient17QWaylandEglWindow10ensureSizeEv@Qt_6_PRIVATE_API 6.6.0
 _ZN15QtWaylandClient17QWaylandEglWindow11qt_metacallEN11QMetaObject4CallEiPPv@Qt_6_PRIVATE_API 6.6.0
 _ZN15QtWaylandClient17QWaylandEglWindow11qt_metacastEPKc@Qt_6_PRIVATE_API 6.6.0
 _ZN15QtWaylandClient17QWaylandEglWindow11setGeometryERK5QRect@Qt_6_PRIVATE_API 6.6.0
 _ZN15QtWaylandClient17QWaylandEglWindow13updateSurfaceEb@Qt_6_PRIVATE_API 6.6.0
 _ZN15QtWaylandClient17QWaylandEglWindow14bindContentFBOEv@Qt_6_PRIVATE_API 6.6.0
 _ZN15QtWaylandClient17QWaylandEglWindow16staticMetaObjectE@Qt_6_PRIVATE_API 6.6.0
 _ZN15QtWaylandClient17QWaylandEglWindow17invalidateSurfaceEv@Qt_6_PRIVATE_API 6.6.0
 _ZN15QtWaylandClient17QWaylandEglWindowC1EP7QWindowPNS_15QWaylandDisplayE@Qt_6_PRIVATE_API 6.6.0
 _ZN15QtWaylandClient17QWaylandEglWindowC2EP7QWindowPNS_15QWaylandDisplayE@Qt_6_PRIVATE_API 6.6.0
 _ZN15QtWaylandClient17QWaylandEglWindowD0Ev@Qt_6_PRIVATE_API 6.6.0
 _ZN15QtWaylandClient17QWaylandEglWindowD1Ev@Qt_6_PRIVATE_API 6.6.0
 _ZN15QtWaylandClient17QWaylandEglWindowD2Ev@Qt_6_PRIVATE_API 6.6.0
 _ZN15QtWaylandClient17QWaylandGLContext10beginFrameEv@Qt_6_PRIVATE_API 6.6.0
 _ZN15QtWaylandClient17QWaylandGLContext11doneCurrentEv@Qt_6_PRIVATE_API 6.6.0
 _ZN15QtWaylandClient17QWaylandGLContext11makeCurrentEP16QPlatformSurface@Qt_6_PRIVATE_API 6.6.0
 _ZN15QtWaylandClient17QWaylandGLContext11swapBuffersEP16QPlatformSurface@Qt_6_PRIVATE_API 6.6.0
 _ZN15QtWaylandClient17QWaylandGLContext14getProcAddressEPKc@Qt_6_PRIVATE_API 6.6.0
 _ZN15QtWaylandClient17QWaylandGLContext28eglSurfaceForPlatformSurfaceEP16QPlatformSurface@Qt_6_PRIVATE_API 6.6.0
 _ZN15QtWaylandClient17QWaylandGLContext31createTemporaryOffscreenSurfaceEv@Qt_6_PRIVATE_API 6.6.0
 _ZN15QtWaylandClient17QWaylandGLContext32destroyTemporaryOffscreenSurfaceEPv@Qt_6_PRIVATE_API 6.6.0
 _ZN15QtWaylandClient17QWaylandGLContext8endFrameEv@Qt_6_PRIVATE_API 6.6.0
 _ZN15QtWaylandClient17QWaylandGLContextC1EPvPNS_15QWaylandDisplayERK14QSurfaceFormatP22QPlatformOpenGLContext@Qt_6_PRIVATE_API 6.6.0
 _ZN15QtWaylandClient17QWaylandGLContextC2EPvPNS_15QWaylandDisplayERK14QSurfaceFormatP22QPlatformOpenGLContext@Qt_6_PRIVATE_API 6.6.0
 _ZN15QtWaylandClient17QWaylandGLContextD0Ev@Qt_6_PRIVATE_API 6.6.0
 _ZN15QtWaylandClient17QWaylandGLContextD1Ev@Qt_6_PRIVATE_API 6.6.0
 _ZN15QtWaylandClient17QWaylandGLContextD2Ev@Qt_6_PRIVATE_API 6.6.0
 _ZN15QtWaylandClient34QWaylandEglClientBufferIntegration10initializeEPNS_15QWaylandDisplayE@Qt_6_PRIVATE_API 6.6.0
 _ZN15QtWaylandClient34QWaylandEglClientBufferIntegration14nativeResourceENS_31QWaylandClientBufferIntegration14NativeResourceE@Qt_6_PRIVATE_API 6.6.0
 _ZN15QtWaylandClient34QWaylandEglClientBufferIntegration15createEglWindowEP7QWindow@Qt_6_PRIVATE_API 6.6.0
 _ZN15QtWaylandClient34QWaylandEglClientBufferIntegration24nativeResourceForContextENS_31QWaylandClientBufferIntegration14NativeResourceEP22QPlatformOpenGLContext@Qt_6_PRIVATE_API 6.6.0
 _ZN15QtWaylandClient34QWaylandEglClientBufferIntegrationC1Ev@Qt_6_PRIVATE_API 6.6.0
 _ZN15QtWaylandClient34QWaylandEglClientBufferIntegrationC2Ev@Qt_6_PRIVATE_API 6.6.0
 _ZN15QtWaylandClient34QWaylandEglClientBufferIntegrationD0Ev@Qt_6_PRIVATE_API 6.6.0
 _ZN15QtWaylandClient34QWaylandEglClientBufferIntegrationD1Ev@Qt_6_PRIVATE_API 6.6.0
 _ZN15QtWaylandClient34QWaylandEglClientBufferIntegrationD2Ev@Qt_6_PRIVATE_API 6.6.0
 _ZNK15QtWaylandClient17QWaylandEglWindow10contentFBOEv@Qt_6_PRIVATE_API 6.6.0
 _ZNK15QtWaylandClient17QWaylandEglWindow10eglSurfaceEv@Qt_6_PRIVATE_API 6.6.0
 _ZNK15QtWaylandClient17QWaylandEglWindow10metaObjectEv@Qt_6_PRIVATE_API 6.6.0
 _ZNK15QtWaylandClient17QWaylandEglWindow10windowTypeEv@Qt_6_PRIVATE_API 6.6.0
 _ZNK15QtWaylandClient17QWaylandEglWindow12contentsRectEv@Qt_6_PRIVATE_API 6.6.0
 _ZNK15QtWaylandClient17QWaylandEglWindow14contentTextureEv@Qt_6_PRIVATE_API 6.6.0
 _ZNK15QtWaylandClient17QWaylandEglWindow6formatEv@Qt_6_PRIVATE_API 6.6.0
 _ZNK15QtWaylandClient17QWaylandGLContext24defaultFramebufferObjectEP16QPlatformSurface@Qt_6_PRIVATE_API 6.6.0
 _ZNK15QtWaylandClient34QWaylandEglClientBufferIntegration10eglDisplayEv@Qt_6_PRIVATE_API 6.6.0
 _ZNK15QtWaylandClient34QWaylandEglClientBufferIntegration22supportsThreadedOpenGLEv@Qt_6_PRIVATE_API 6.6.0
 _ZNK15QtWaylandClient34QWaylandEglClientBufferIntegration24supportsWindowDecorationEv@Qt_6_PRIVATE_API 6.6.0
 _ZNK15QtWaylandClient34QWaylandEglClientBufferIntegration27createPlatformOpenGLContextERK14QSurfaceFormatP22QPlatformOpenGLContext@Qt_6_PRIVATE_API 6.6.0
 _ZNK15QtWaylandClient34QWaylandEglClientBufferIntegration7isValidEv@Qt_6_PRIVATE_API 6.6.0
 _ZTIN15QtWaylandClient17QWaylandEglWindowE@Qt_6_PRIVATE_API 6.6.0
 _ZTIN15QtWaylandClient17QWaylandGLContextE@Qt_6_PRIVATE_API 6.6.0
 _ZTIN15QtWaylandClient34QWaylandEglClientBufferIntegrationE@Qt_6_PRIVATE_API 6.6.0
 _ZTSN15QtWaylandClient17QWaylandEglWindowE@Qt_6_PRIVATE_API 6.6.0
 _ZTSN15QtWaylandClient17QWaylandGLContextE@Qt_6_PRIVATE_API 6.6.0
 _ZTSN15QtWaylandClient34QWaylandEglClientBufferIntegrationE@Qt_6_PRIVATE_API 6.6.0
 _ZTVN15QtWaylandClient17QWaylandEglWindowE@Qt_6_PRIVATE_API 6.6.0
 _ZTVN15QtWaylandClient17QWaylandGLContextE@Qt_6_PRIVATE_API 6.6.0
 _ZTVN15QtWaylandClient34QWaylandEglClientBufferIntegrationE@Qt_6_PRIVATE_API 6.6.0
 (c++)"non-virtual thunk to QtWaylandClient::QWaylandEglWindow::format() const@Qt_6_PRIVATE_API" 6.6.0
 (c++)"non-virtual thunk to QtWaylandClient::QWaylandEglWindow::invalidateSurface()@Qt_6_PRIVATE_API" 6.6.0
 (c++)"non-virtual thunk to QtWaylandClient::QWaylandEglWindow::setGeometry(QRect const&)@Qt_6_PRIVATE_API" 6.6.0
 (c++)"non-virtual thunk to QtWaylandClient::QWaylandEglWindow::~QWaylandEglWindow()@Qt_6_PRIVATE_API" 6.6.0
 (c++)"non-virtual thunk to QtWaylandClient::QWaylandGLContext::~QWaylandGLContext()@Qt_6_PRIVATE_API" 6.6.0
