# SymbolsHelper-Confirmed: 6.2.2 amd64 armel armhf i386 mipsel sh4
libQt6WaylandEglCompositorHwIntegration.so.6 libqt6waylandeglcompositorhwintegration6 #MINVER#
* Build-Depends-Package: qt6-wayland-dev
 _ZN22WaylandEglClientBuffer11isProtectedEv@Base 6.2.2
 _ZN22WaylandEglClientBuffer12setCommittedER7QRegion@Base 6.2.2
 _ZN22WaylandEglClientBuffer15toOpenGlTextureEi@Base 6.2.2
 _ZN22WaylandEglClientBuffer16lockNativeBufferEv@Base 6.2.2
 _ZN22WaylandEglClientBufferC1EP33WaylandEglClientBufferIntegrationP11wl_resource@Base 6.2.2
 _ZN22WaylandEglClientBufferC2EP33WaylandEglClientBufferIntegrationP11wl_resource@Base 6.2.2
 _ZN22WaylandEglClientBufferD0Ev@Base 6.2.2
 _ZN22WaylandEglClientBufferD1Ev@Base 6.2.2
 _ZN22WaylandEglClientBufferD2Ev@Base 6.2.2
 _ZN33WaylandEglClientBufferIntegration15createBufferForEP11wl_resource@Base 6.2.2
 _ZN33WaylandEglClientBufferIntegration18initializeHardwareEP10wl_display@Base 6.2.2
 _ZN33WaylandEglClientBufferIntegrationC1Ev@Base 6.2.2
 _ZN33WaylandEglClientBufferIntegrationC2Ev@Base 6.2.2
 _ZN33WaylandEglClientBufferIntegrationD0Ev@Base 6.2.2
 _ZN33WaylandEglClientBufferIntegrationD1Ev@Base 6.2.2
 _ZN33WaylandEglClientBufferIntegrationD2Ev@Base 6.2.2
 _ZNK22WaylandEglClientBuffer15bufferFormatEglEv@Base 6.2.2
 (subst)_ZNK22WaylandEglClientBuffer18unlockNativeBufferE{quintptr}@Base 6.2.2
 _ZNK22WaylandEglClientBuffer4sizeEv@Base 6.2.2
 _ZNK22WaylandEglClientBuffer6originEv@Base 6.2.2
 _ZTI22WaylandEglClientBuffer@Base 6.2.2
 _ZTI33WaylandEglClientBufferIntegration@Base 6.2.2
 _ZTIN9QtWayland23ClientBufferIntegrationE@Base 6.2.2
 _ZTS22WaylandEglClientBuffer@Base 6.2.2
 _ZTS33WaylandEglClientBufferIntegration@Base 6.2.2
 _ZTSN9QtWayland23ClientBufferIntegrationE@Base 6.2.2
 _ZTV22WaylandEglClientBuffer@Base 6.2.2
 _ZTV33WaylandEglClientBufferIntegration@Base 6.2.2
