# SymbolsHelper-Confirmed: 6.5.3 amd64
libQt6WlShellIntegration.so.6 libqt6wlshellintegration6 #MINVER#
* Build-Depends-Package: qt6-wayland-dev
 _ZN15QtWaylandClient22QWaylandWlShellSurface11qt_metacallEN11QMetaObject4CallEiPPv@Base 6.2.2
 _ZN15QtWaylandClient22QWaylandWlShellSurface11qt_metacastEPKc@Base 6.2.2
 _ZN15QtWaylandClient22QWaylandWlShellSurface11setTopLevelEv@Base 6.2.2
 _ZN15QtWaylandClient22QWaylandWlShellSurface12sendPropertyERK7QStringRK8QVariant@Base 6.2.2
 _ZN15QtWaylandClient22QWaylandWlShellSurface14applyConfigureEv@Base 6.2.2
 _ZN15QtWaylandClient22QWaylandWlShellSurface14setWindowFlagsE6QFlagsIN2Qt10WindowTypeEE@Base 6.2.2
 _ZN15QtWaylandClient22QWaylandWlShellSurface16staticMetaObjectE@Base 6.2.2
 _ZN15QtWaylandClient22QWaylandWlShellSurface18shell_surface_pingEj@Base 6.2.2
 _ZN15QtWaylandClient22QWaylandWlShellSurface19requestWindowStatesE6QFlagsIN2Qt11WindowStateEE@Base 6.2.2
 _ZN15QtWaylandClient22QWaylandWlShellSurface20convertToResizeEdgesE6QFlagsIN2Qt4EdgeEE@Base 6.2.2
 _ZN15QtWaylandClient22QWaylandWlShellSurface21updateTransientParentEP7QWindow@Base 6.2.2
 _ZN15QtWaylandClient22QWaylandWlShellSurface23shell_surface_configureEjii@Base 6.2.2
 _ZN15QtWaylandClient22QWaylandWlShellSurface24shell_surface_popup_doneEv@Base 6.2.2
 _ZN15QtWaylandClient22QWaylandWlShellSurface25setContentOrientationMaskE6QFlagsIN2Qt17ScreenOrientationEE@Base 6.2.2
 _ZN15QtWaylandClient22QWaylandWlShellSurface4moveEPNS_19QWaylandInputDeviceE@Base 6.2.2
 _ZN15QtWaylandClient22QWaylandWlShellSurface5lowerEv@Base 6.2.2
 _ZN15QtWaylandClient22QWaylandWlShellSurface5raiseEv@Base 6.2.2
 _ZN15QtWaylandClient22QWaylandWlShellSurface6resizeEPNS_19QWaylandInputDeviceE6QFlagsIN2Qt4EdgeEE@Base 6.2.2
 _ZN15QtWaylandClient22QWaylandWlShellSurface8setAppIdERK7QString@Base 6.2.2
 _ZN15QtWaylandClient22QWaylandWlShellSurface8setPopupEPNS_14QWaylandWindowEPNS_19QWaylandInputDeviceEj@Base 6.2.2
 _ZN15QtWaylandClient22QWaylandWlShellSurface8setTitleERK7QString@Base 6.2.2
 _ZN15QtWaylandClient22QWaylandWlShellSurfaceC1EP16wl_shell_surfacePNS_14QWaylandWindowE@Base 6.2.2
 _ZN15QtWaylandClient22QWaylandWlShellSurfaceC2EP16wl_shell_surfacePNS_14QWaylandWindowE@Base 6.2.2
 _ZN15QtWaylandClient22QWaylandWlShellSurfaceD0Ev@Base 6.2.2
 _ZN15QtWaylandClient22QWaylandWlShellSurfaceD1Ev@Base 6.2.2
 _ZN15QtWaylandClient22QWaylandWlShellSurfaceD2Ev@Base 6.2.2
 _ZN15QtWaylandClient26QWaylandWlShellIntegration10initializeEPNS_15QWaylandDisplayE@Base 6.2.2
 _ZN15QtWaylandClient26QWaylandWlShellIntegration18createShellSurfaceEPNS_14QWaylandWindowE@Base 6.2.2
 _ZN15QtWaylandClient26QWaylandWlShellIntegration23nativeResourceForWindowERK10QByteArrayP7QWindow@Base 6.2.2
 _ZN9QtWayland10wl_pointer10fromObjectEP10wl_pointer@Base 6.2.2
 _ZN9QtWayland10wl_pointer10set_cursorEjP10wl_surfaceii@Base 6.2.2
 _ZN9QtWayland10wl_pointer11handle_axisEPvP10wl_pointerjji@Base 6.2.2
 _ZN9QtWayland10wl_pointer12handle_enterEPvP10wl_pointerjP10wl_surfaceii@Base 6.2.2
 _ZN9QtWayland10wl_pointer12handle_frameEPvP10wl_pointer@Base 6.2.2
 _ZN9QtWayland10wl_pointer12handle_leaveEPvP10wl_pointerjP10wl_surface@Base 6.2.2
 _ZN9QtWayland10wl_pointer12pointer_axisEjji@Base 6.2.2
 _ZN9QtWayland10wl_pointer13handle_buttonEPvP10wl_pointerjjjj@Base 6.2.2
 _ZN9QtWayland10wl_pointer13handle_motionEPvP10wl_pointerjii@Base 6.2.2
 _ZN9QtWayland10wl_pointer13init_listenerEv@Base 6.2.2
 _ZN9QtWayland10wl_pointer13pointer_enterEjP10wl_surfaceii@Base 6.2.2
 _ZN9QtWayland10wl_pointer13pointer_frameEv@Base 6.2.2
 _ZN9QtWayland10wl_pointer13pointer_leaveEjP10wl_surface@Base 6.2.2
 _ZN9QtWayland10wl_pointer14pointer_buttonEjjjj@Base 6.2.2
 _ZN9QtWayland10wl_pointer14pointer_motionEjii@Base 6.2.2
 _ZN9QtWayland10wl_pointer16handle_axis_stopEPvP10wl_pointerjj@Base 6.2.2
 _ZN9QtWayland10wl_pointer17pointer_axis_stopEjj@Base 6.2.2
 _ZN9QtWayland10wl_pointer18handle_axis_sourceEPvP10wl_pointerj@Base 6.2.2
 _ZN9QtWayland10wl_pointer19pointer_axis_sourceEj@Base 6.2.2
 _ZN9QtWayland10wl_pointer20handle_axis_discreteEPvP10wl_pointerji@Base 6.2.2
 _ZN9QtWayland10wl_pointer20handle_axis_value120EPvP10wl_pointerji@Base 6.5.3
 _ZN9QtWayland10wl_pointer21m_wl_pointer_listenerE@Base 6.2.2
 _ZN9QtWayland10wl_pointer21pointer_axis_discreteEji@Base 6.2.2
 _ZN9QtWayland10wl_pointer21pointer_axis_value120Eji@Base 6.5.3
 _ZN9QtWayland10wl_pointer4initEP10wl_pointer@Base 6.2.2
 _ZN9QtWayland10wl_pointer4initEP11wl_registryji@Base 6.2.2
 _ZN9QtWayland10wl_pointer7releaseEv@Base 6.2.2
 _ZN9QtWayland10wl_pointer9interfaceEv@Base 6.2.2
 _ZN9QtWayland10wl_pointerC1EP10wl_pointer@Base 6.2.2
 _ZN9QtWayland10wl_pointerC1EP11wl_registryji@Base 6.2.2
 _ZN9QtWayland10wl_pointerC1Ev@Base 6.2.2
 _ZN9QtWayland10wl_pointerC2EP10wl_pointer@Base 6.2.2
 _ZN9QtWayland10wl_pointerC2EP11wl_registryji@Base 6.2.2
 _ZN9QtWayland10wl_pointerC2Ev@Base 6.2.2
 _ZN9QtWayland10wl_pointerD0Ev@Base 6.2.2
 _ZN9QtWayland10wl_pointerD1Ev@Base 6.2.2
 _ZN9QtWayland10wl_pointerD2Ev@Base 6.2.2
 _ZN9QtWayland10wl_surface10fromObjectEP10wl_surface@Base 6.2.2
 _ZN9QtWayland10wl_surface12handle_enterEPvP10wl_surfaceP9wl_output@Base 6.2.2
 _ZN9QtWayland10wl_surface12handle_leaveEPvP10wl_surfaceP9wl_output@Base 6.2.2
 _ZN9QtWayland10wl_surface13damage_bufferEiiii@Base 6.2.2
 _ZN9QtWayland10wl_surface13init_listenerEv@Base 6.2.2
 _ZN9QtWayland10wl_surface13surface_enterEP9wl_output@Base 6.2.2
 _ZN9QtWayland10wl_surface13surface_leaveEP9wl_output@Base 6.2.2
 _ZN9QtWayland10wl_surface16set_buffer_scaleEi@Base 6.2.2
 _ZN9QtWayland10wl_surface16set_input_regionEP9wl_region@Base 6.2.2
 _ZN9QtWayland10wl_surface17set_opaque_regionEP9wl_region@Base 6.2.2
 _ZN9QtWayland10wl_surface20set_buffer_transformEi@Base 6.2.2
 _ZN9QtWayland10wl_surface21m_wl_surface_listenerE@Base 6.2.2
 _ZN9QtWayland10wl_surface4initEP10wl_surface@Base 6.2.2
 _ZN9QtWayland10wl_surface4initEP11wl_registryji@Base 6.2.2
 _ZN9QtWayland10wl_surface5frameEv@Base 6.2.2
 _ZN9QtWayland10wl_surface6attachEP9wl_bufferii@Base 6.2.2
 _ZN9QtWayland10wl_surface6commitEv@Base 6.2.2
 _ZN9QtWayland10wl_surface6damageEiiii@Base 6.2.2
 _ZN9QtWayland10wl_surface6offsetEii@Base 6.5.3
 _ZN9QtWayland10wl_surface7destroyEv@Base 6.2.2
 _ZN9QtWayland10wl_surface9interfaceEv@Base 6.2.2
 _ZN9QtWayland10wl_surfaceC1EP10wl_surface@Base 6.2.2
 _ZN9QtWayland10wl_surfaceC1EP11wl_registryji@Base 6.2.2
 _ZN9QtWayland10wl_surfaceC1Ev@Base 6.2.2
 _ZN9QtWayland10wl_surfaceC2EP10wl_surface@Base 6.2.2
 _ZN9QtWayland10wl_surfaceC2EP11wl_registryji@Base 6.2.2
 _ZN9QtWayland10wl_surfaceC2Ev@Base 6.2.2
 _ZN9QtWayland10wl_surfaceD0Ev@Base 6.2.2
 _ZN9QtWayland10wl_surfaceD1Ev@Base 6.2.2
 _ZN9QtWayland10wl_surfaceD2Ev@Base 6.2.2
 _ZN9QtWayland11wl_callback10fromObjectEP11wl_callback@Base 6.2.2
 _ZN9QtWayland11wl_callback11handle_doneEPvP11wl_callbackj@Base 6.2.2
 _ZN9QtWayland11wl_callback13callback_doneEj@Base 6.2.2
 _ZN9QtWayland11wl_callback13init_listenerEv@Base 6.2.2
 _ZN9QtWayland11wl_callback22m_wl_callback_listenerE@Base 6.2.2
 _ZN9QtWayland11wl_callback4initEP11wl_callback@Base 6.2.2
 _ZN9QtWayland11wl_callback4initEP11wl_registryji@Base 6.2.2
 _ZN9QtWayland11wl_callback9interfaceEv@Base 6.2.2
 _ZN9QtWayland11wl_callbackC1EP11wl_callback@Base 6.2.2
 _ZN9QtWayland11wl_callbackC1EP11wl_registryji@Base 6.2.2
 _ZN9QtWayland11wl_callbackC1Ev@Base 6.2.2
 _ZN9QtWayland11wl_callbackC2EP11wl_callback@Base 6.2.2
 _ZN9QtWayland11wl_callbackC2EP11wl_registryji@Base 6.2.2
 _ZN9QtWayland11wl_callbackC2Ev@Base 6.2.2
 _ZN9QtWayland11wl_callbackD0Ev@Base 6.2.2
 _ZN9QtWayland11wl_callbackD1Ev@Base 6.2.2
 _ZN9QtWayland11wl_callbackD2Ev@Base 6.2.2
 _ZN9QtWayland11wl_keyboard10fromObjectEP11wl_keyboard@Base 6.2.2
 _ZN9QtWayland11wl_keyboard10handle_keyEPvP11wl_keyboardjjjj@Base 6.2.2
 _ZN9QtWayland11wl_keyboard12handle_enterEPvP11wl_keyboardjP10wl_surfaceP8wl_array@Base 6.2.2
 _ZN9QtWayland11wl_keyboard12handle_leaveEPvP11wl_keyboardjP10wl_surface@Base 6.2.2
 _ZN9QtWayland11wl_keyboard12keyboard_keyEjjjj@Base 6.2.2
 _ZN9QtWayland11wl_keyboard13handle_keymapEPvP11wl_keyboardjij@Base 6.2.2
 _ZN9QtWayland11wl_keyboard13init_listenerEv@Base 6.2.2
 _ZN9QtWayland11wl_keyboard14keyboard_enterEjP10wl_surfaceP8wl_array@Base 6.2.2
 _ZN9QtWayland11wl_keyboard14keyboard_leaveEjP10wl_surface@Base 6.2.2
 _ZN9QtWayland11wl_keyboard15keyboard_keymapEjij@Base 6.2.2
 _ZN9QtWayland11wl_keyboard16handle_modifiersEPvP11wl_keyboardjjjjj@Base 6.2.2
 _ZN9QtWayland11wl_keyboard18handle_repeat_infoEPvP11wl_keyboardii@Base 6.2.2
 _ZN9QtWayland11wl_keyboard18keyboard_modifiersEjjjjj@Base 6.2.2
 _ZN9QtWayland11wl_keyboard20keyboard_repeat_infoEii@Base 6.2.2
 _ZN9QtWayland11wl_keyboard22m_wl_keyboard_listenerE@Base 6.2.2
 _ZN9QtWayland11wl_keyboard4initEP11wl_keyboard@Base 6.2.2
 _ZN9QtWayland11wl_keyboard4initEP11wl_registryji@Base 6.2.2
 _ZN9QtWayland11wl_keyboard7releaseEv@Base 6.2.2
 _ZN9QtWayland11wl_keyboard9interfaceEv@Base 6.2.2
 _ZN9QtWayland11wl_keyboardC1EP11wl_keyboard@Base 6.2.2
 _ZN9QtWayland11wl_keyboardC1EP11wl_registryji@Base 6.2.2
 _ZN9QtWayland11wl_keyboardC1Ev@Base 6.2.2
 _ZN9QtWayland11wl_keyboardC2EP11wl_keyboard@Base 6.2.2
 _ZN9QtWayland11wl_keyboardC2EP11wl_registryji@Base 6.2.2
 _ZN9QtWayland11wl_keyboardC2Ev@Base 6.2.2
 _ZN9QtWayland11wl_keyboardD0Ev@Base 6.2.2
 _ZN9QtWayland11wl_keyboardD1Ev@Base 6.2.2
 _ZN9QtWayland11wl_keyboardD2Ev@Base 6.2.2
 _ZN9QtWayland11wl_registry10fromObjectEP11wl_registry@Base 6.2.2
 _ZN9QtWayland11wl_registry13handle_globalEPvP11wl_registryjPKcj@Base 6.2.2
 _ZN9QtWayland11wl_registry13init_listenerEv@Base 6.2.2
 _ZN9QtWayland11wl_registry15registry_globalEjRK7QStringj@Base 6.2.2
 _ZN9QtWayland11wl_registry20handle_global_removeEPvP11wl_registryj@Base 6.2.2
 _ZN9QtWayland11wl_registry22m_wl_registry_listenerE@Base 6.2.2
 _ZN9QtWayland11wl_registry22registry_global_removeEj@Base 6.2.2
 _ZN9QtWayland11wl_registry4bindEjPK12wl_interfacej@Base 6.2.2
 _ZN9QtWayland11wl_registry4initEP11wl_registry@Base 6.2.2
 _ZN9QtWayland11wl_registry4initEP11wl_registryji@Base 6.2.2
 _ZN9QtWayland11wl_registry9interfaceEv@Base 6.2.2
 _ZN9QtWayland11wl_registryC1EP11wl_registry@Base 6.2.2
 _ZN9QtWayland11wl_registryC1EP11wl_registryji@Base 6.2.2
 _ZN9QtWayland11wl_registryC1Ev@Base 6.2.2
 _ZN9QtWayland11wl_registryC2EP11wl_registry@Base 6.2.2
 _ZN9QtWayland11wl_registryC2EP11wl_registryji@Base 6.2.2
 _ZN9QtWayland11wl_registryC2Ev@Base 6.2.2
 _ZN9QtWayland11wl_registryD0Ev@Base 6.2.2
 _ZN9QtWayland11wl_registryD1Ev@Base 6.2.2
 _ZN9QtWayland11wl_registryD2Ev@Base 6.2.2
 _ZN9QtWayland11wl_shm_pool10fromObjectEP11wl_shm_pool@Base 6.2.2
 _ZN9QtWayland11wl_shm_pool13create_bufferEiiiij@Base 6.2.2
 _ZN9QtWayland11wl_shm_pool4initEP11wl_registryji@Base 6.2.2
 _ZN9QtWayland11wl_shm_pool4initEP11wl_shm_pool@Base 6.2.2
 _ZN9QtWayland11wl_shm_pool6resizeEi@Base 6.2.2
 _ZN9QtWayland11wl_shm_pool7destroyEv@Base 6.2.2
 _ZN9QtWayland11wl_shm_pool9interfaceEv@Base 6.2.2
 _ZN9QtWayland11wl_shm_poolC1EP11wl_registryji@Base 6.2.2
 _ZN9QtWayland11wl_shm_poolC1EP11wl_shm_pool@Base 6.2.2
 _ZN9QtWayland11wl_shm_poolC1Ev@Base 6.2.2
 _ZN9QtWayland11wl_shm_poolC2EP11wl_registryji@Base 6.2.2
 _ZN9QtWayland11wl_shm_poolC2EP11wl_shm_pool@Base 6.2.2
 _ZN9QtWayland11wl_shm_poolC2Ev@Base 6.2.2
 _ZN9QtWayland11wl_shm_poolD0Ev@Base 6.2.2
 _ZN9QtWayland11wl_shm_poolD1Ev@Base 6.2.2
 _ZN9QtWayland11wl_shm_poolD2Ev@Base 6.2.2
 _ZN9QtWayland13wl_compositor10fromObjectEP13wl_compositor@Base 6.2.2
 _ZN9QtWayland13wl_compositor13create_regionEv@Base 6.2.2
 _ZN9QtWayland13wl_compositor14create_surfaceEv@Base 6.2.2
 _ZN9QtWayland13wl_compositor4initEP11wl_registryji@Base 6.2.2
 _ZN9QtWayland13wl_compositor4initEP13wl_compositor@Base 6.2.2
 _ZN9QtWayland13wl_compositor9interfaceEv@Base 6.2.2
 _ZN9QtWayland13wl_compositorC1EP11wl_registryji@Base 6.2.2
 _ZN9QtWayland13wl_compositorC1EP13wl_compositor@Base 6.2.2
 _ZN9QtWayland13wl_compositorC1Ev@Base 6.2.2
 _ZN9QtWayland13wl_compositorC2EP11wl_registryji@Base 6.2.2
 _ZN9QtWayland13wl_compositorC2EP13wl_compositor@Base 6.2.2
 _ZN9QtWayland13wl_compositorC2Ev@Base 6.2.2
 _ZN9QtWayland13wl_compositorD0Ev@Base 6.2.2
 _ZN9QtWayland13wl_compositorD1Ev@Base 6.2.2
 _ZN9QtWayland13wl_compositorD2Ev@Base 6.2.2
 _ZN9QtWayland13wl_data_offer10fromObjectEP13wl_data_offer@Base 6.2.2
 _ZN9QtWayland13wl_data_offer11set_actionsEjj@Base 6.2.2
 _ZN9QtWayland13wl_data_offer12handle_offerEPvP13wl_data_offerPKc@Base 6.2.2
 _ZN9QtWayland13wl_data_offer13handle_actionEPvP13wl_data_offerj@Base 6.2.2
 _ZN9QtWayland13wl_data_offer13init_listenerEv@Base 6.2.2
 _ZN9QtWayland13wl_data_offer16data_offer_offerERK7QString@Base 6.2.2
 _ZN9QtWayland13wl_data_offer17data_offer_actionEj@Base 6.2.2
 _ZN9QtWayland13wl_data_offer21handle_source_actionsEPvP13wl_data_offerj@Base 6.2.2
 _ZN9QtWayland13wl_data_offer24m_wl_data_offer_listenerE@Base 6.2.2
 _ZN9QtWayland13wl_data_offer25data_offer_source_actionsEj@Base 6.2.2
 _ZN9QtWayland13wl_data_offer4initEP11wl_registryji@Base 6.2.2
 _ZN9QtWayland13wl_data_offer4initEP13wl_data_offer@Base 6.2.2
 _ZN9QtWayland13wl_data_offer6acceptEjRK7QString@Base 6.2.2
 _ZN9QtWayland13wl_data_offer6finishEv@Base 6.2.2
 _ZN9QtWayland13wl_data_offer7destroyEv@Base 6.2.2
 _ZN9QtWayland13wl_data_offer7receiveERK7QStringi@Base 6.2.2
 _ZN9QtWayland13wl_data_offer9interfaceEv@Base 6.2.2
 _ZN9QtWayland13wl_data_offerC1EP11wl_registryji@Base 6.2.2
 _ZN9QtWayland13wl_data_offerC1EP13wl_data_offer@Base 6.2.2
 _ZN9QtWayland13wl_data_offerC1Ev@Base 6.2.2
 _ZN9QtWayland13wl_data_offerC2EP11wl_registryji@Base 6.2.2
 _ZN9QtWayland13wl_data_offerC2EP13wl_data_offer@Base 6.2.2
 _ZN9QtWayland13wl_data_offerC2Ev@Base 6.2.2
 _ZN9QtWayland13wl_data_offerD0Ev@Base 6.2.2
 _ZN9QtWayland13wl_data_offerD1Ev@Base 6.2.2
 _ZN9QtWayland13wl_data_offerD2Ev@Base 6.2.2
 _ZN9QtWayland13wl_subsurface10fromObjectEP13wl_subsurface@Base 6.2.2
 _ZN9QtWayland13wl_subsurface10set_desyncEv@Base 6.2.2
 _ZN9QtWayland13wl_subsurface11place_aboveEP10wl_surface@Base 6.2.2
 _ZN9QtWayland13wl_subsurface11place_belowEP10wl_surface@Base 6.2.2
 _ZN9QtWayland13wl_subsurface12set_positionEii@Base 6.2.2
 _ZN9QtWayland13wl_subsurface4initEP11wl_registryji@Base 6.2.2
 _ZN9QtWayland13wl_subsurface4initEP13wl_subsurface@Base 6.2.2
 _ZN9QtWayland13wl_subsurface7destroyEv@Base 6.2.2
 _ZN9QtWayland13wl_subsurface8set_syncEv@Base 6.2.2
 _ZN9QtWayland13wl_subsurface9interfaceEv@Base 6.2.2
 _ZN9QtWayland13wl_subsurfaceC1EP11wl_registryji@Base 6.2.2
 _ZN9QtWayland13wl_subsurfaceC1EP13wl_subsurface@Base 6.2.2
 _ZN9QtWayland13wl_subsurfaceC1Ev@Base 6.2.2
 _ZN9QtWayland13wl_subsurfaceC2EP11wl_registryji@Base 6.2.2
 _ZN9QtWayland13wl_subsurfaceC2EP13wl_subsurface@Base 6.2.2
 _ZN9QtWayland13wl_subsurfaceC2Ev@Base 6.2.2
 _ZN9QtWayland13wl_subsurfaceD0Ev@Base 6.2.2
 _ZN9QtWayland13wl_subsurfaceD1Ev@Base 6.2.2
 _ZN9QtWayland13wl_subsurfaceD2Ev@Base 6.2.2
 _ZN9QtWayland14wl_data_device10fromObjectEP14wl_data_device@Base 6.2.2
 _ZN9QtWayland14wl_data_device10start_dragEP14wl_data_sourceP10wl_surfaceS4_j@Base 6.2.2
 _ZN9QtWayland14wl_data_device11handle_dropEPvP14wl_data_device@Base 6.2.2
 _ZN9QtWayland14wl_data_device12handle_enterEPvP14wl_data_devicejP10wl_surfaceiiP13wl_data_offer@Base 6.2.2
 _ZN9QtWayland14wl_data_device12handle_leaveEPvP14wl_data_device@Base 6.2.2
 _ZN9QtWayland14wl_data_device13handle_motionEPvP14wl_data_devicejii@Base 6.2.2
 _ZN9QtWayland14wl_data_device13init_listenerEv@Base 6.2.2
 _ZN9QtWayland14wl_data_device13set_selectionEP14wl_data_sourcej@Base 6.2.2
 _ZN9QtWayland14wl_data_device16data_device_dropEv@Base 6.2.2
 _ZN9QtWayland14wl_data_device16handle_selectionEPvP14wl_data_deviceP13wl_data_offer@Base 6.2.2
 _ZN9QtWayland14wl_data_device17data_device_enterEjP10wl_surfaceiiP13wl_data_offer@Base 6.2.2
 _ZN9QtWayland14wl_data_device17data_device_leaveEv@Base 6.2.2
 _ZN9QtWayland14wl_data_device17handle_data_offerEPvP14wl_data_deviceP13wl_data_offer@Base 6.2.2
 _ZN9QtWayland14wl_data_device18data_device_motionEjii@Base 6.2.2
 _ZN9QtWayland14wl_data_device21data_device_selectionEP13wl_data_offer@Base 6.2.2
 _ZN9QtWayland14wl_data_device22data_device_data_offerEP13wl_data_offer@Base 6.2.2
 _ZN9QtWayland14wl_data_device25m_wl_data_device_listenerE@Base 6.2.2
 _ZN9QtWayland14wl_data_device4initEP11wl_registryji@Base 6.2.2
 _ZN9QtWayland14wl_data_device4initEP14wl_data_device@Base 6.2.2
 _ZN9QtWayland14wl_data_device7releaseEv@Base 6.2.2
 _ZN9QtWayland14wl_data_device9interfaceEv@Base 6.2.2
 _ZN9QtWayland14wl_data_deviceC1EP11wl_registryji@Base 6.2.2
 _ZN9QtWayland14wl_data_deviceC1EP14wl_data_device@Base 6.2.2
 _ZN9QtWayland14wl_data_deviceC1Ev@Base 6.2.2
 _ZN9QtWayland14wl_data_deviceC2EP11wl_registryji@Base 6.2.2
 _ZN9QtWayland14wl_data_deviceC2EP14wl_data_device@Base 6.2.2
 _ZN9QtWayland14wl_data_deviceC2Ev@Base 6.2.2
 _ZN9QtWayland14wl_data_deviceD0Ev@Base 6.2.2
 _ZN9QtWayland14wl_data_deviceD1Ev@Base 6.2.2
 _ZN9QtWayland14wl_data_deviceD2Ev@Base 6.2.2
 _ZN9QtWayland14wl_data_source10fromObjectEP14wl_data_source@Base 6.2.2
 _ZN9QtWayland14wl_data_source11handle_sendEPvP14wl_data_sourcePKci@Base 6.2.2
 _ZN9QtWayland14wl_data_source11set_actionsEj@Base 6.2.2
 _ZN9QtWayland14wl_data_source13handle_actionEPvP14wl_data_sourcej@Base 6.2.2
 _ZN9QtWayland14wl_data_source13handle_targetEPvP14wl_data_sourcePKc@Base 6.2.2
 _ZN9QtWayland14wl_data_source13init_listenerEv@Base 6.2.2
 _ZN9QtWayland14wl_data_source16data_source_sendERK7QStringi@Base 6.2.2
 _ZN9QtWayland14wl_data_source16handle_cancelledEPvP14wl_data_source@Base 6.2.2
 _ZN9QtWayland14wl_data_source18data_source_actionEj@Base 6.2.2
 _ZN9QtWayland14wl_data_source18data_source_targetERK7QString@Base 6.2.2
 _ZN9QtWayland14wl_data_source19handle_dnd_finishedEPvP14wl_data_source@Base 6.2.2
 _ZN9QtWayland14wl_data_source21data_source_cancelledEv@Base 6.2.2
 _ZN9QtWayland14wl_data_source24data_source_dnd_finishedEv@Base 6.2.2
 _ZN9QtWayland14wl_data_source25handle_dnd_drop_performedEPvP14wl_data_source@Base 6.2.2
 _ZN9QtWayland14wl_data_source25m_wl_data_source_listenerE@Base 6.2.2
 _ZN9QtWayland14wl_data_source30data_source_dnd_drop_performedEv@Base 6.2.2
 _ZN9QtWayland14wl_data_source4initEP11wl_registryji@Base 6.2.2
 _ZN9QtWayland14wl_data_source4initEP14wl_data_source@Base 6.2.2
 _ZN9QtWayland14wl_data_source5offerERK7QString@Base 6.2.2
 _ZN9QtWayland14wl_data_source7destroyEv@Base 6.2.2
 _ZN9QtWayland14wl_data_source9interfaceEv@Base 6.2.2
 _ZN9QtWayland14wl_data_sourceC1EP11wl_registryji@Base 6.2.2
 _ZN9QtWayland14wl_data_sourceC1EP14wl_data_source@Base 6.2.2
 _ZN9QtWayland14wl_data_sourceC1Ev@Base 6.2.2
 _ZN9QtWayland14wl_data_sourceC2EP11wl_registryji@Base 6.2.2
 _ZN9QtWayland14wl_data_sourceC2EP14wl_data_source@Base 6.2.2
 _ZN9QtWayland14wl_data_sourceC2Ev@Base 6.2.2
 _ZN9QtWayland14wl_data_sourceD0Ev@Base 6.2.2
 _ZN9QtWayland14wl_data_sourceD1Ev@Base 6.2.2
 _ZN9QtWayland14wl_data_sourceD2Ev@Base 6.2.2
 _ZN9QtWayland16wl_shell_surface10fromObjectEP16wl_shell_surface@Base 6.2.2
 _ZN9QtWayland16wl_shell_surface11handle_pingEPvP16wl_shell_surfacej@Base 6.2.2
 _ZN9QtWayland16wl_shell_surface12set_toplevelEv@Base 6.2.2
 _ZN9QtWayland16wl_shell_surface13init_listenerEv@Base 6.2.2
 _ZN9QtWayland16wl_shell_surface13set_maximizedEP9wl_output@Base 6.2.2
 _ZN9QtWayland16wl_shell_surface13set_transientEP10wl_surfaceiij@Base 6.2.2
 _ZN9QtWayland16wl_shell_surface14set_fullscreenEjjP9wl_output@Base 6.2.2
 _ZN9QtWayland16wl_shell_surface16handle_configureEPvP16wl_shell_surfacejii@Base 6.2.2
 _ZN9QtWayland16wl_shell_surface17handle_popup_doneEPvP16wl_shell_surface@Base 6.2.2
 _ZN9QtWayland16wl_shell_surface18shell_surface_pingEj@Base 6.2.2
 _ZN9QtWayland16wl_shell_surface23shell_surface_configureEjii@Base 6.2.2
 _ZN9QtWayland16wl_shell_surface24shell_surface_popup_doneEv@Base 6.2.2
 _ZN9QtWayland16wl_shell_surface27m_wl_shell_surface_listenerE@Base 6.2.2
 _ZN9QtWayland16wl_shell_surface4initEP11wl_registryji@Base 6.2.2
 _ZN9QtWayland16wl_shell_surface4initEP16wl_shell_surface@Base 6.2.2
 _ZN9QtWayland16wl_shell_surface4moveEP7wl_seatj@Base 6.2.2
 _ZN9QtWayland16wl_shell_surface4pongEj@Base 6.2.2
 _ZN9QtWayland16wl_shell_surface6resizeEP7wl_seatjj@Base 6.2.2
 _ZN9QtWayland16wl_shell_surface9interfaceEv@Base 6.2.2
 _ZN9QtWayland16wl_shell_surface9set_classERK7QString@Base 6.2.2
 _ZN9QtWayland16wl_shell_surface9set_popupEP7wl_seatjP10wl_surfaceiij@Base 6.2.2
 _ZN9QtWayland16wl_shell_surface9set_titleERK7QString@Base 6.2.2
 _ZN9QtWayland16wl_shell_surfaceC1EP11wl_registryji@Base 6.2.2
 _ZN9QtWayland16wl_shell_surfaceC1EP16wl_shell_surface@Base 6.2.2
 _ZN9QtWayland16wl_shell_surfaceC1Ev@Base 6.2.2
 _ZN9QtWayland16wl_shell_surfaceC2EP11wl_registryji@Base 6.2.2
 _ZN9QtWayland16wl_shell_surfaceC2EP16wl_shell_surface@Base 6.2.2
 _ZN9QtWayland16wl_shell_surfaceC2Ev@Base 6.2.2
 _ZN9QtWayland16wl_shell_surfaceD0Ev@Base 6.2.2
 _ZN9QtWayland16wl_shell_surfaceD1Ev@Base 6.2.2
 _ZN9QtWayland16wl_shell_surfaceD2Ev@Base 6.2.2
 _ZN9QtWayland16wl_subcompositor10fromObjectEP16wl_subcompositor@Base 6.2.2
 _ZN9QtWayland16wl_subcompositor14get_subsurfaceEP10wl_surfaceS2_@Base 6.2.2
 _ZN9QtWayland16wl_subcompositor4initEP11wl_registryji@Base 6.2.2
 _ZN9QtWayland16wl_subcompositor4initEP16wl_subcompositor@Base 6.2.2
 _ZN9QtWayland16wl_subcompositor7destroyEv@Base 6.2.2
 _ZN9QtWayland16wl_subcompositor9interfaceEv@Base 6.2.2
 _ZN9QtWayland16wl_subcompositorC1EP11wl_registryji@Base 6.2.2
 _ZN9QtWayland16wl_subcompositorC1EP16wl_subcompositor@Base 6.2.2
 _ZN9QtWayland16wl_subcompositorC1Ev@Base 6.2.2
 _ZN9QtWayland16wl_subcompositorC2EP11wl_registryji@Base 6.2.2
 _ZN9QtWayland16wl_subcompositorC2EP16wl_subcompositor@Base 6.2.2
 _ZN9QtWayland16wl_subcompositorC2Ev@Base 6.2.2
 _ZN9QtWayland16wl_subcompositorD0Ev@Base 6.2.2
 _ZN9QtWayland16wl_subcompositorD1Ev@Base 6.2.2
 _ZN9QtWayland16wl_subcompositorD2Ev@Base 6.2.2
 _ZN9QtWayland22wl_data_device_manager10fromObjectEP22wl_data_device_manager@Base 6.2.2
 _ZN9QtWayland22wl_data_device_manager15get_data_deviceEP7wl_seat@Base 6.2.2
 _ZN9QtWayland22wl_data_device_manager18create_data_sourceEv@Base 6.2.2
 _ZN9QtWayland22wl_data_device_manager4initEP11wl_registryji@Base 6.2.2
 _ZN9QtWayland22wl_data_device_manager4initEP22wl_data_device_manager@Base 6.2.2
 _ZN9QtWayland22wl_data_device_manager9interfaceEv@Base 6.2.2
 _ZN9QtWayland22wl_data_device_managerC1EP11wl_registryji@Base 6.2.2
 _ZN9QtWayland22wl_data_device_managerC1EP22wl_data_device_manager@Base 6.2.2
 _ZN9QtWayland22wl_data_device_managerC1Ev@Base 6.2.2
 _ZN9QtWayland22wl_data_device_managerC2EP11wl_registryji@Base 6.2.2
 _ZN9QtWayland22wl_data_device_managerC2EP22wl_data_device_manager@Base 6.2.2
 _ZN9QtWayland22wl_data_device_managerC2Ev@Base 6.2.2
 _ZN9QtWayland22wl_data_device_managerD0Ev@Base 6.2.2
 _ZN9QtWayland22wl_data_device_managerD1Ev@Base 6.2.2
 _ZN9QtWayland22wl_data_device_managerD2Ev@Base 6.2.2
 _ZN9QtWayland6wl_shm10fromObjectEP6wl_shm@Base 6.2.2
 _ZN9QtWayland6wl_shm10shm_formatEj@Base 6.2.2
 _ZN9QtWayland6wl_shm11create_poolEii@Base 6.2.2
 _ZN9QtWayland6wl_shm13handle_formatEPvP6wl_shmj@Base 6.2.2
 _ZN9QtWayland6wl_shm13init_listenerEv@Base 6.2.2
 _ZN9QtWayland6wl_shm17m_wl_shm_listenerE@Base 6.2.2
 _ZN9QtWayland6wl_shm4initEP11wl_registryji@Base 6.2.2
 _ZN9QtWayland6wl_shm4initEP6wl_shm@Base 6.2.2
 _ZN9QtWayland6wl_shm9interfaceEv@Base 6.2.2
 _ZN9QtWayland6wl_shmC1EP11wl_registryji@Base 6.2.2
 _ZN9QtWayland6wl_shmC1EP6wl_shm@Base 6.2.2
 _ZN9QtWayland6wl_shmC1Ev@Base 6.2.2
 _ZN9QtWayland6wl_shmC2EP11wl_registryji@Base 6.2.2
 _ZN9QtWayland6wl_shmC2EP6wl_shm@Base 6.2.2
 _ZN9QtWayland6wl_shmC2Ev@Base 6.2.2
 _ZN9QtWayland6wl_shmD0Ev@Base 6.2.2
 _ZN9QtWayland6wl_shmD1Ev@Base 6.2.2
 _ZN9QtWayland6wl_shmD2Ev@Base 6.2.2
 _ZN9QtWayland7wl_seat10fromObjectEP7wl_seat@Base 6.2.2
 _ZN9QtWayland7wl_seat11get_pointerEv@Base 6.2.2
 _ZN9QtWayland7wl_seat11handle_nameEPvP7wl_seatPKc@Base 6.2.2
 _ZN9QtWayland7wl_seat12get_keyboardEv@Base 6.2.2
 _ZN9QtWayland7wl_seat13init_listenerEv@Base 6.2.2
 _ZN9QtWayland7wl_seat17seat_capabilitiesEj@Base 6.2.2
 _ZN9QtWayland7wl_seat18m_wl_seat_listenerE@Base 6.2.2
 _ZN9QtWayland7wl_seat19handle_capabilitiesEPvP7wl_seatj@Base 6.2.2
 _ZN9QtWayland7wl_seat4initEP11wl_registryji@Base 6.2.2
 _ZN9QtWayland7wl_seat4initEP7wl_seat@Base 6.2.2
 _ZN9QtWayland7wl_seat7releaseEv@Base 6.2.2
 _ZN9QtWayland7wl_seat9get_touchEv@Base 6.2.2
 _ZN9QtWayland7wl_seat9interfaceEv@Base 6.2.2
 _ZN9QtWayland7wl_seat9seat_nameERK7QString@Base 6.2.2
 _ZN9QtWayland7wl_seatC1EP11wl_registryji@Base 6.2.2
 _ZN9QtWayland7wl_seatC1EP7wl_seat@Base 6.2.2
 _ZN9QtWayland7wl_seatC1Ev@Base 6.2.2
 _ZN9QtWayland7wl_seatC2EP11wl_registryji@Base 6.2.2
 _ZN9QtWayland7wl_seatC2EP7wl_seat@Base 6.2.2
 _ZN9QtWayland7wl_seatC2Ev@Base 6.2.2
 _ZN9QtWayland7wl_seatD0Ev@Base 6.2.2
 _ZN9QtWayland7wl_seatD1Ev@Base 6.2.2
 _ZN9QtWayland7wl_seatD2Ev@Base 6.2.2
 _ZN9QtWayland8wl_shell10fromObjectEP8wl_shell@Base 6.2.2
 _ZN9QtWayland8wl_shell17get_shell_surfaceEP10wl_surface@Base 6.2.2
 _ZN9QtWayland8wl_shell4initEP11wl_registryji@Base 6.2.2
 _ZN9QtWayland8wl_shell4initEP8wl_shell@Base 6.2.2
 _ZN9QtWayland8wl_shell9interfaceEv@Base 6.2.2
 _ZN9QtWayland8wl_shellC1EP11wl_registryji@Base 6.2.2
 _ZN9QtWayland8wl_shellC1EP8wl_shell@Base 6.2.2
 _ZN9QtWayland8wl_shellC1Ev@Base 6.2.2
 _ZN9QtWayland8wl_shellC2EP11wl_registryji@Base 6.2.2
 _ZN9QtWayland8wl_shellC2EP8wl_shell@Base 6.2.2
 _ZN9QtWayland8wl_shellC2Ev@Base 6.2.2
 _ZN9QtWayland8wl_shellD0Ev@Base 6.2.2
 _ZN9QtWayland8wl_shellD1Ev@Base 6.2.2
 _ZN9QtWayland8wl_shellD2Ev@Base 6.2.2
 _ZN9QtWayland8wl_touch10fromObjectEP8wl_touch@Base 6.2.2
 _ZN9QtWayland8wl_touch10touch_downEjjP10wl_surfaceiii@Base 6.2.2
 _ZN9QtWayland8wl_touch11handle_downEPvP8wl_touchjjP10wl_surfaceiii@Base 6.2.2
 _ZN9QtWayland8wl_touch11touch_frameEv@Base 6.2.2
 _ZN9QtWayland8wl_touch11touch_shapeEiii@Base 6.2.2
 _ZN9QtWayland8wl_touch12handle_frameEPvP8wl_touch@Base 6.2.2
 _ZN9QtWayland8wl_touch12handle_shapeEPvP8wl_touchiii@Base 6.2.2
 _ZN9QtWayland8wl_touch12touch_cancelEv@Base 6.2.2
 _ZN9QtWayland8wl_touch12touch_motionEjiii@Base 6.2.2
 _ZN9QtWayland8wl_touch13handle_cancelEPvP8wl_touch@Base 6.2.2
 _ZN9QtWayland8wl_touch13handle_motionEPvP8wl_touchjiii@Base 6.2.2
 _ZN9QtWayland8wl_touch13init_listenerEv@Base 6.2.2
 _ZN9QtWayland8wl_touch17touch_orientationEii@Base 6.2.2
 _ZN9QtWayland8wl_touch18handle_orientationEPvP8wl_touchii@Base 6.2.2
 _ZN9QtWayland8wl_touch19m_wl_touch_listenerE@Base 6.2.2
 _ZN9QtWayland8wl_touch4initEP11wl_registryji@Base 6.2.2
 _ZN9QtWayland8wl_touch4initEP8wl_touch@Base 6.2.2
 _ZN9QtWayland8wl_touch7releaseEv@Base 6.2.2
 _ZN9QtWayland8wl_touch8touch_upEjji@Base 6.2.2
 _ZN9QtWayland8wl_touch9handle_upEPvP8wl_touchjji@Base 6.2.2
 _ZN9QtWayland8wl_touch9interfaceEv@Base 6.2.2
 _ZN9QtWayland8wl_touchC1EP11wl_registryji@Base 6.2.2
 _ZN9QtWayland8wl_touchC1EP8wl_touch@Base 6.2.2
 _ZN9QtWayland8wl_touchC1Ev@Base 6.2.2
 _ZN9QtWayland8wl_touchC2EP11wl_registryji@Base 6.2.2
 _ZN9QtWayland8wl_touchC2EP8wl_touch@Base 6.2.2
 _ZN9QtWayland8wl_touchC2Ev@Base 6.2.2
 _ZN9QtWayland8wl_touchD0Ev@Base 6.2.2
 _ZN9QtWayland8wl_touchD1Ev@Base 6.2.2
 _ZN9QtWayland8wl_touchD2Ev@Base 6.2.2
 _ZN9QtWayland9wl_buffer10fromObjectEP9wl_buffer@Base 6.2.2
 _ZN9QtWayland9wl_buffer13init_listenerEv@Base 6.2.2
 _ZN9QtWayland9wl_buffer14buffer_releaseEv@Base 6.2.2
 _ZN9QtWayland9wl_buffer14handle_releaseEPvP9wl_buffer@Base 6.2.2
 _ZN9QtWayland9wl_buffer20m_wl_buffer_listenerE@Base 6.2.2
 _ZN9QtWayland9wl_buffer4initEP11wl_registryji@Base 6.2.2
 _ZN9QtWayland9wl_buffer4initEP9wl_buffer@Base 6.2.2
 _ZN9QtWayland9wl_buffer7destroyEv@Base 6.2.2
 _ZN9QtWayland9wl_buffer9interfaceEv@Base 6.2.2
 _ZN9QtWayland9wl_bufferC1EP11wl_registryji@Base 6.2.2
 _ZN9QtWayland9wl_bufferC1EP9wl_buffer@Base 6.2.2
 _ZN9QtWayland9wl_bufferC1Ev@Base 6.2.2
 _ZN9QtWayland9wl_bufferC2EP11wl_registryji@Base 6.2.2
 _ZN9QtWayland9wl_bufferC2EP9wl_buffer@Base 6.2.2
 _ZN9QtWayland9wl_bufferC2Ev@Base 6.2.2
 _ZN9QtWayland9wl_bufferD0Ev@Base 6.2.2
 _ZN9QtWayland9wl_bufferD1Ev@Base 6.2.2
 _ZN9QtWayland9wl_bufferD2Ev@Base 6.2.2
 _ZN9QtWayland9wl_output10fromObjectEP9wl_output@Base 6.2.2
 _ZN9QtWayland9wl_output11handle_doneEPvP9wl_output@Base 6.2.2
 _ZN9QtWayland9wl_output11handle_modeEPvP9wl_outputjiii@Base 6.2.2
 _ZN9QtWayland9wl_output11handle_nameEPvP9wl_outputPKc@Base 6.5.3
 _ZN9QtWayland9wl_output11output_doneEv@Base 6.2.2
 _ZN9QtWayland9wl_output11output_modeEjiii@Base 6.2.2
 _ZN9QtWayland9wl_output11output_nameERK7QString@Base 6.5.3
 _ZN9QtWayland9wl_output12handle_scaleEPvP9wl_outputi@Base 6.2.2
 _ZN9QtWayland9wl_output12output_scaleEi@Base 6.2.2
 _ZN9QtWayland9wl_output13init_listenerEv@Base 6.2.2
 _ZN9QtWayland9wl_output15handle_geometryEPvP9wl_outputiiiiiPKcS5_i@Base 6.2.2
 _ZN9QtWayland9wl_output15output_geometryEiiiiiRK7QStringS3_i@Base 6.2.2
 _ZN9QtWayland9wl_output18handle_descriptionEPvP9wl_outputPKc@Base 6.5.3
 _ZN9QtWayland9wl_output18output_descriptionERK7QString@Base 6.5.3
 _ZN9QtWayland9wl_output20m_wl_output_listenerE@Base 6.2.2
 _ZN9QtWayland9wl_output4initEP11wl_registryji@Base 6.2.2
 _ZN9QtWayland9wl_output4initEP9wl_output@Base 6.2.2
 _ZN9QtWayland9wl_output7releaseEv@Base 6.2.2
 _ZN9QtWayland9wl_output9interfaceEv@Base 6.2.2
 _ZN9QtWayland9wl_outputC1EP11wl_registryji@Base 6.2.2
 _ZN9QtWayland9wl_outputC1EP9wl_output@Base 6.2.2
 _ZN9QtWayland9wl_outputC1Ev@Base 6.2.2
 _ZN9QtWayland9wl_outputC2EP11wl_registryji@Base 6.2.2
 _ZN9QtWayland9wl_outputC2EP9wl_output@Base 6.2.2
 _ZN9QtWayland9wl_outputC2Ev@Base 6.2.2
 _ZN9QtWayland9wl_outputD0Ev@Base 6.2.2
 _ZN9QtWayland9wl_outputD1Ev@Base 6.2.2
 _ZN9QtWayland9wl_outputD2Ev@Base 6.2.2
 _ZN9QtWayland9wl_region10fromObjectEP9wl_region@Base 6.2.2
 _ZN9QtWayland9wl_region3addEiiii@Base 6.2.2
 _ZN9QtWayland9wl_region4initEP11wl_registryji@Base 6.2.2
 _ZN9QtWayland9wl_region4initEP9wl_region@Base 6.2.2
 _ZN9QtWayland9wl_region7destroyEv@Base 6.2.2
 _ZN9QtWayland9wl_region8subtractEiiii@Base 6.2.2
 _ZN9QtWayland9wl_region9interfaceEv@Base 6.2.2
 _ZN9QtWayland9wl_regionC1EP11wl_registryji@Base 6.2.2
 _ZN9QtWayland9wl_regionC1EP9wl_region@Base 6.2.2
 _ZN9QtWayland9wl_regionC1Ev@Base 6.2.2
 _ZN9QtWayland9wl_regionC2EP11wl_registryji@Base 6.2.2
 _ZN9QtWayland9wl_regionC2EP9wl_region@Base 6.2.2
 _ZN9QtWayland9wl_regionC2Ev@Base 6.2.2
 _ZN9QtWayland9wl_regionD0Ev@Base 6.2.2
 _ZN9QtWayland9wl_regionD1Ev@Base 6.2.2
 _ZN9QtWayland9wl_regionD2Ev@Base 6.2.2
 _ZNK15QtWaylandClient22QWaylandWlShellSurface10metaObjectEv@Base 6.2.2
 _ZNK15QtWaylandClient22QWaylandWlShellSurface16wantsDecorationsEv@Base 6.2.2
 _ZNK9QtWayland10wl_pointer13isInitializedEv@Base 6.2.2
 _ZNK9QtWayland10wl_pointer7versionEv@Base 6.2.2
 _ZNK9QtWayland10wl_surface13isInitializedEv@Base 6.2.2
 _ZNK9QtWayland10wl_surface7versionEv@Base 6.2.2
 _ZNK9QtWayland11wl_callback13isInitializedEv@Base 6.2.2
 _ZNK9QtWayland11wl_callback7versionEv@Base 6.2.2
 _ZNK9QtWayland11wl_keyboard13isInitializedEv@Base 6.2.2
 _ZNK9QtWayland11wl_keyboard7versionEv@Base 6.2.2
 _ZNK9QtWayland11wl_registry13isInitializedEv@Base 6.2.2
 _ZNK9QtWayland11wl_registry7versionEv@Base 6.2.2
 _ZNK9QtWayland11wl_shm_pool13isInitializedEv@Base 6.2.2
 _ZNK9QtWayland11wl_shm_pool7versionEv@Base 6.2.2
 _ZNK9QtWayland13wl_compositor13isInitializedEv@Base 6.2.2
 _ZNK9QtWayland13wl_compositor7versionEv@Base 6.2.2
 _ZNK9QtWayland13wl_data_offer13isInitializedEv@Base 6.2.2
 _ZNK9QtWayland13wl_data_offer7versionEv@Base 6.2.2
 _ZNK9QtWayland13wl_subsurface13isInitializedEv@Base 6.2.2
 _ZNK9QtWayland13wl_subsurface7versionEv@Base 6.2.2
 _ZNK9QtWayland14wl_data_device13isInitializedEv@Base 6.2.2
 _ZNK9QtWayland14wl_data_device7versionEv@Base 6.2.2
 _ZNK9QtWayland14wl_data_source13isInitializedEv@Base 6.2.2
 _ZNK9QtWayland14wl_data_source7versionEv@Base 6.2.2
 _ZNK9QtWayland16wl_shell_surface13isInitializedEv@Base 6.2.2
 _ZNK9QtWayland16wl_shell_surface7versionEv@Base 6.2.2
 _ZNK9QtWayland16wl_subcompositor13isInitializedEv@Base 6.2.2
 _ZNK9QtWayland16wl_subcompositor7versionEv@Base 6.2.2
 _ZNK9QtWayland22wl_data_device_manager13isInitializedEv@Base 6.2.2
 _ZNK9QtWayland22wl_data_device_manager7versionEv@Base 6.2.2
 _ZNK9QtWayland6wl_shm13isInitializedEv@Base 6.2.2
 _ZNK9QtWayland6wl_shm7versionEv@Base 6.2.2
 _ZNK9QtWayland7wl_seat13isInitializedEv@Base 6.2.2
 _ZNK9QtWayland7wl_seat7versionEv@Base 6.2.2
 _ZNK9QtWayland8wl_shell13isInitializedEv@Base 6.2.2
 _ZNK9QtWayland8wl_shell7versionEv@Base 6.2.2
 _ZNK9QtWayland8wl_touch13isInitializedEv@Base 6.2.2
 _ZNK9QtWayland8wl_touch7versionEv@Base 6.2.2
 _ZNK9QtWayland9wl_buffer13isInitializedEv@Base 6.2.2
 _ZNK9QtWayland9wl_buffer7versionEv@Base 6.2.2
 _ZNK9QtWayland9wl_output13isInitializedEv@Base 6.2.2
 _ZNK9QtWayland9wl_output7versionEv@Base 6.2.2
 _ZNK9QtWayland9wl_region13isInitializedEv@Base 6.2.2
 _ZNK9QtWayland9wl_region7versionEv@Base 6.2.2
 _ZTIN15QtWaylandClient22QWaylandWlShellSurfaceE@Base 6.2.2
 _ZTIN15QtWaylandClient24QWaylandShellIntegrationE@Base 6.2.2
 _ZTIN15QtWaylandClient26QWaylandWlShellIntegrationE@Base 6.2.2
 _ZTIN9QtWayland10wl_pointerE@Base 6.2.2
 _ZTIN9QtWayland10wl_surfaceE@Base 6.2.2
 _ZTIN9QtWayland11wl_callbackE@Base 6.2.2
 _ZTIN9QtWayland11wl_keyboardE@Base 6.2.2
 _ZTIN9QtWayland11wl_registryE@Base 6.2.2
 _ZTIN9QtWayland11wl_shm_poolE@Base 6.2.2
 _ZTIN9QtWayland13wl_compositorE@Base 6.2.2
 _ZTIN9QtWayland13wl_data_offerE@Base 6.2.2
 _ZTIN9QtWayland13wl_subsurfaceE@Base 6.2.2
 _ZTIN9QtWayland14wl_data_deviceE@Base 6.2.2
 _ZTIN9QtWayland14wl_data_sourceE@Base 6.2.2
 _ZTIN9QtWayland16wl_shell_surfaceE@Base 6.2.2
 _ZTIN9QtWayland16wl_subcompositorE@Base 6.2.2
 _ZTIN9QtWayland22wl_data_device_managerE@Base 6.2.2
 _ZTIN9QtWayland6wl_shmE@Base 6.2.2
 _ZTIN9QtWayland7wl_seatE@Base 6.2.2
 _ZTIN9QtWayland8wl_shellE@Base 6.2.2
 _ZTIN9QtWayland8wl_touchE@Base 6.2.2
 _ZTIN9QtWayland9wl_bufferE@Base 6.2.2
 _ZTIN9QtWayland9wl_outputE@Base 6.2.2
 _ZTIN9QtWayland9wl_regionE@Base 6.2.2
 _ZTSN15QtWaylandClient22QWaylandWlShellSurfaceE@Base 6.2.2
 _ZTSN15QtWaylandClient24QWaylandShellIntegrationE@Base 6.2.2
 _ZTSN15QtWaylandClient26QWaylandWlShellIntegrationE@Base 6.2.2
 _ZTSN9QtWayland10wl_pointerE@Base 6.2.2
 _ZTSN9QtWayland10wl_surfaceE@Base 6.2.2
 _ZTSN9QtWayland11wl_callbackE@Base 6.2.2
 _ZTSN9QtWayland11wl_keyboardE@Base 6.2.2
 _ZTSN9QtWayland11wl_registryE@Base 6.2.2
 _ZTSN9QtWayland11wl_shm_poolE@Base 6.2.2
 _ZTSN9QtWayland13wl_compositorE@Base 6.2.2
 _ZTSN9QtWayland13wl_data_offerE@Base 6.2.2
 _ZTSN9QtWayland13wl_subsurfaceE@Base 6.2.2
 _ZTSN9QtWayland14wl_data_deviceE@Base 6.2.2
 _ZTSN9QtWayland14wl_data_sourceE@Base 6.2.2
 _ZTSN9QtWayland16wl_shell_surfaceE@Base 6.2.2
 _ZTSN9QtWayland16wl_subcompositorE@Base 6.2.2
 _ZTSN9QtWayland22wl_data_device_managerE@Base 6.2.2
 _ZTSN9QtWayland6wl_shmE@Base 6.2.2
 _ZTSN9QtWayland7wl_seatE@Base 6.2.2
 _ZTSN9QtWayland8wl_shellE@Base 6.2.2
 _ZTSN9QtWayland8wl_touchE@Base 6.2.2
 _ZTSN9QtWayland9wl_bufferE@Base 6.2.2
 _ZTSN9QtWayland9wl_outputE@Base 6.2.2
 _ZTSN9QtWayland9wl_regionE@Base 6.2.2
 _ZTVN15QtWaylandClient22QWaylandWlShellSurfaceE@Base 6.2.2
 _ZTVN15QtWaylandClient26QWaylandWlShellIntegrationE@Base 6.2.2
 _ZTVN9QtWayland10wl_pointerE@Base 6.2.2
 _ZTVN9QtWayland10wl_surfaceE@Base 6.2.2
 _ZTVN9QtWayland11wl_callbackE@Base 6.2.2
 _ZTVN9QtWayland11wl_keyboardE@Base 6.2.2
 _ZTVN9QtWayland11wl_registryE@Base 6.2.2
 _ZTVN9QtWayland11wl_shm_poolE@Base 6.2.2
 _ZTVN9QtWayland13wl_compositorE@Base 6.2.2
 _ZTVN9QtWayland13wl_data_offerE@Base 6.2.2
 _ZTVN9QtWayland13wl_subsurfaceE@Base 6.2.2
 _ZTVN9QtWayland14wl_data_deviceE@Base 6.2.2
 _ZTVN9QtWayland14wl_data_sourceE@Base 6.2.2
 _ZTVN9QtWayland16wl_shell_surfaceE@Base 6.2.2
 _ZTVN9QtWayland16wl_subcompositorE@Base 6.2.2
 _ZTVN9QtWayland22wl_data_device_managerE@Base 6.2.2
 _ZTVN9QtWayland6wl_shmE@Base 6.2.2
 _ZTVN9QtWayland7wl_seatE@Base 6.2.2
 _ZTVN9QtWayland8wl_shellE@Base 6.2.2
 _ZTVN9QtWayland8wl_touchE@Base 6.2.2
 _ZTVN9QtWayland9wl_bufferE@Base 6.2.2
 _ZTVN9QtWayland9wl_outputE@Base 6.2.2
 _ZTVN9QtWayland9wl_regionE@Base 6.2.2
 (c++)"non-virtual thunk to QtWaylandClient::QWaylandWlShellSurface::shell_surface_configure(unsigned int, int, int)@Base" 6.2.2
 (c++)"non-virtual thunk to QtWaylandClient::QWaylandWlShellSurface::shell_surface_ping(unsigned int)@Base" 6.2.2
 (c++)"non-virtual thunk to QtWaylandClient::QWaylandWlShellSurface::shell_surface_popup_done()@Base" 6.2.2
 (c++)"non-virtual thunk to QtWaylandClient::QWaylandWlShellSurface::~QWaylandWlShellSurface()@Base" 6.2.2
 wl_buffer_interface@Base 6.2.2
 wl_callback_interface@Base 6.2.2
 wl_compositor_interface@Base 6.2.2
 wl_data_device_interface@Base 6.2.2
 wl_data_device_manager_interface@Base 6.2.2
 wl_data_offer_interface@Base 6.2.2
 wl_data_source_interface@Base 6.2.2
 wl_display_interface@Base 6.2.2
 wl_keyboard_interface@Base 6.2.2
 wl_output_interface@Base 6.2.2
 wl_pointer_interface@Base 6.2.2
 wl_region_interface@Base 6.2.2
 wl_registry_interface@Base 6.2.2
 wl_seat_interface@Base 6.2.2
 wl_shell_interface@Base 6.2.2
 wl_shell_surface_interface@Base 6.2.2
 wl_shm_interface@Base 6.2.2
 wl_shm_pool_interface@Base 6.2.2
 wl_subcompositor_interface@Base 6.2.2
 wl_subsurface_interface@Base 6.2.2
 wl_surface_interface@Base 6.2.2
 wl_touch_interface@Base 6.2.2
